; Function Attrs: mustprogress nofree norecurse nosync nounwind willreturn memory(argmem: read) uwtable
define hidden noundef zeroext i1 @_ZN6Assimp4D3MF12D3MFExporter8validateEv(ptr noundef nonnull readonly align 8 captures(none) dereferenceable(1224) %0) local_unnamed_addr #5 align 2 {
  %2 = getelementptr inbounds nuw i8, ptr %0, i64 8
  %3 = load i64, ptr %2, align 8
  %4 = icmp ne i64 %3, 0
  %5 = getelementptr inbounds nuw i8, ptr %0, i64 40
  %6 = load ptr, ptr %5, align 8
  %7 = icmp ne ptr %6, null
  %.0 = select i1 %4, i1 %7, i1 false
  ret i1 %.0
}